target datalayout = "e-m:e-p270:32:32-p271:32:32-p272:64:64-i64:64-i128:128-f80:128-n8:16:32:64-S128"
target triple = "x86_64-pc-linux-gnu"

@.str.16 = private unnamed_addr constant [28 x i8] c"    rootsfound[] = %3d %3d\0A\00", align 1
@.str.17 = private unnamed_addr constant [24 x i8] c"    rootsfound[] = %3d\0A\00", align 1

; Function Attrs: nounwind uwtable
define internal void @PrintRootInfo(i32 noundef %0, i32 noundef %1, i32 noundef %2) #0 {
  %4 = alloca i32, align 4
  %5 = alloca i32, align 4
  %6 = alloca i32, align 4
  store i32 %0, ptr %4, align 4, !tbaa !16
  store i32 %1, ptr %5, align 4, !tbaa !16
  store i32 %2, ptr %6, align 4, !tbaa !16
  %7 = load i32, ptr %6, align 4, !tbaa !16
  %8 = icmp eq i32 %7, 2
  br i1 %8, label %9, label %13

9:                                                ; preds = %3
  %10 = load i32, ptr %4, align 4, !tbaa !16
  %11 = load i32, ptr %5, align 4, !tbaa !16
  %12 = call i32 (ptr, ...) @printf(ptr noundef @.str.16, i32 noundef %10, i32 noundef %11)
  br label %13

13:                                               ; preds = %9, %3
  %14 = load i32, ptr %6, align 4, !tbaa !16
  %15 = icmp eq i32 %14, 1
  br i1 %15, label %16, label %19

16:                                               ; preds = %13
  %17 = load i32, ptr %4, align 4, !tbaa !16
  %18 = call i32 (ptr, ...) @printf(ptr noundef @.str.17, i32 noundef %17)
  br label %19

19:                                               ; preds = %16, %13
  ret void
}